target datalayout = "e-m:e-p270:32:32-p271:32:32-p272:64:64-i64:64-i128:128-f80:128-n8:16:32:64-S128"
target triple = "x86_64-pc-linux-gnu"

%struct.SDL_VideoDevice = type { ptr, ptr, ptr, ptr, ptr, ptr, ptr, ptr, ptr, ptr, ptr, ptr, ptr, ptr, ptr, ptr, ptr, ptr, ptr, ptr, ptr, ptr, ptr, ptr, ptr, ptr, ptr, ptr, ptr, ptr, ptr, ptr, ptr, ptr, ptr, ptr, ptr, ptr, ptr, ptr, ptr, ptr, ptr, ptr, ptr, ptr, ptr, ptr, ptr, ptr, ptr, ptr, ptr, ptr, ptr, ptr, ptr, ptr, ptr, ptr, ptr, ptr, ptr, ptr, ptr, ptr, ptr, ptr, ptr, ptr, ptr, ptr, ptr, ptr, ptr, ptr, ptr, ptr, ptr, ptr, ptr, ptr, ptr, ptr, ptr, ptr, ptr, ptr, ptr, ptr, ptr, ptr, ptr, ptr, ptr, ptr, ptr, i64, i8, i8, i8, ptr, i32, ptr, %struct.SDL_Rect, ptr, ptr, i32, ptr, ptr, ptr, ptr, i64, ptr, i8, i32, i32, %struct.anon, ptr, ptr, ptr, ptr, ptr, ptr, %struct.SDL_AtomicInt, %struct.SDL_AtomicInt, i8, %struct.anon.0, ptr, ptr, ptr, ptr, ptr }
%struct.SDL_Rect = type { i32, i32, i32, i32 }
%struct.anon = type { i32, i32, i32, i32, i32, i32, i32, i32, i32, i32, i32, i32, i32, i32, i32, i32, i32, i32, i32, i32, i32, i32, i32, i32, i32, i32, i32, i32, i32, [256 x i8], ptr }
%struct.SDL_AtomicInt = type { i32 }
%struct.anon.0 = type { ptr, ptr, i32, [256 x i8], ptr }

@.str.3 = private unnamed_addr constant [26 x i8] c"Parameter '%s' is invalid\00", align 1
@.str.4 = private unnamed_addr constant [10 x i8] c"mime_type\00", align 1
@.str.5 = private unnamed_addr constant [5 x i8] c"text\00", align 1

; Function Attrs: nounwind uwtable
define hidden zeroext i1 @SDL_HasInternalClipboardData(ptr noundef %0, ptr noundef %1) #0 {
  %3 = alloca i1, align 1
  %4 = alloca ptr, align 8
  %5 = alloca ptr, align 8
  %6 = alloca i64, align 8
  %7 = alloca i32, align 4
  store ptr %0, ptr %4, align 8
  store ptr %1, ptr %5, align 8
  call void @llvm.lifetime.start.p0(i64 8, ptr %6) #5
  store i64 0, ptr %6, align 8
  br label %8

8:                                                ; preds = %26, %2
  %9 = load i64, ptr %6, align 8
  %10 = load ptr, ptr %4, align 8
  %11 = getelementptr inbounds nuw %struct.SDL_VideoDevice, ptr %10, i32 0, i32 112
  %12 = load i64, ptr %11, align 8
  %13 = icmp ult i64 %9, %12
  br i1 %13, label %14, label %29

14:                                               ; preds = %8
  %15 = load ptr, ptr %5, align 8
  %16 = load ptr, ptr %4, align 8
  %17 = getelementptr inbounds nuw %struct.SDL_VideoDevice, ptr %16, i32 0, i32 111
  %18 = load ptr, ptr %17, align 8
  %19 = load i64, ptr %6, align 8
  %20 = getelementptr inbounds nuw ptr, ptr %18, i64 %19
  %21 = load ptr, ptr %20, align 8
  %22 = call i32 @SDL_strcmp_REAL(ptr noundef %15, ptr noundef %21)
  %23 = icmp eq i32 %22, 0
  br i1 %23, label %24, label %25

24:                                               ; preds = %14
  store i1 true, ptr %3, align 1
  store i32 1, ptr %7, align 4
  br label %30

25:                                               ; preds = %14
  br label %26

26:                                               ; preds = %25
  %27 = load i64, ptr %6, align 8
  %28 = add i64 %27, 1
  store i64 %28, ptr %6, align 8
  br label %8, !llvm.loop !12

29:                                               ; preds = %8
  store i1 false, ptr %3, align 1
  store i32 1, ptr %7, align 4
  br label %30

30:                                               ; preds = %29, %24
  call void @llvm.lifetime.end.p0(i64 8, ptr %6) #5
  %31 = load i1, ptr %3, align 1
  ret i1 %31
}

; Function Attrs: nounwind uwtable
define hidden zeroext i1 @SDL_IsTextMimeType(ptr noundef %0) #0 {
  %2 = alloca ptr, align 8
  store ptr %0, ptr %2, align 8
  %3 = load ptr, ptr %2, align 8
  %4 = call i32 @SDL_strncmp_REAL(ptr noundef %3, ptr noundef @.str.5, i64 noundef 4)
  %5 = icmp eq i32 %4, 0
  ret i1 %5
}

; Function Attrs: nounwind uwtable
define hidden zeroext i1 @SDL_HasClipboardData_REAL(ptr noundef %0) #0 {
  %2 = alloca i1, align 1
  %3 = alloca ptr, align 8
  %4 = alloca ptr, align 8
  %5 = alloca i32, align 4
  store ptr %0, ptr %3, align 8
  call void @llvm.lifetime.start.p0(i64 8, ptr %4) #5
  %6 = call ptr @SDL_GetVideoDevice()
  store ptr %6, ptr %4, align 8
  %7 = load ptr, ptr %4, align 8
  %8 = icmp ne ptr %7, null
  br i1 %8, label %11, label %9

9:                                                ; preds = %1
  %10 = call zeroext i1 @SDL_UninitializedVideo()
  store i1 false, ptr %2, align 1
  store i32 1, ptr %5, align 4
  br label %46

11:                                               ; preds = %1
  %12 = load ptr, ptr %3, align 8
  %13 = icmp ne ptr %12, null
  br i1 %13, label %16, label %14

14:                                               ; preds = %11
  %15 = call zeroext i1 (ptr, ...) @SDL_SetError_REAL(ptr noundef @.str.3, ptr noundef @.str.4)
  store i1 false, ptr %2, align 1
  store i32 1, ptr %5, align 4
  br label %46

16:                                               ; preds = %11
  %17 = load ptr, ptr %4, align 8
  %18 = getelementptr inbounds nuw %struct.SDL_VideoDevice, ptr %17, i32 0, i32 86
  %19 = load ptr, ptr %18, align 8
  %20 = icmp ne ptr %19, null
  br i1 %20, label %21, label %28

21:                                               ; preds = %16
  %22 = load ptr, ptr %4, align 8
  %23 = getelementptr inbounds nuw %struct.SDL_VideoDevice, ptr %22, i32 0, i32 86
  %24 = load ptr, ptr %23, align 8
  %25 = load ptr, ptr %4, align 8
  %26 = load ptr, ptr %3, align 8
  %27 = call zeroext i1 %24(ptr noundef %25, ptr noundef %26)
  store i1 %27, ptr %2, align 1
  store i32 1, ptr %5, align 4
  br label %46

28:                                               ; preds = %16
  %29 = load ptr, ptr %4, align 8
  %30 = getelementptr inbounds nuw %struct.SDL_VideoDevice, ptr %29, i32 0, i32 89
  %31 = load ptr, ptr %30, align 8
  %32 = icmp ne ptr %31, null
  br i1 %32, label %33, label %42

33:                                               ; preds = %28
  %34 = load ptr, ptr %3, align 8
  %35 = call zeroext i1 @SDL_IsTextMimeType(ptr noundef %34)
  br i1 %35, label %36, label %42

36:                                               ; preds = %33
  %37 = load ptr, ptr %4, align 8
  %38 = getelementptr inbounds nuw %struct.SDL_VideoDevice, ptr %37, i32 0, i32 89
  %39 = load ptr, ptr %38, align 8
  %40 = load ptr, ptr %4, align 8
  %41 = call zeroext i1 %39(ptr noundef %40)
  store i1 %41, ptr %2, align 1
  store i32 1, ptr %5, align 4
  br label %46

42:                                               ; preds = %33, %28
  %43 = load ptr, ptr %4, align 8
  %44 = load ptr, ptr %3, align 8
  %45 = call zeroext i1 @SDL_HasInternalClipboardData(ptr noundef %43, ptr noundef %44)
  store i1 %45, ptr %2, align 1
  store i32 1, ptr %5, align 4
  br label %46

46:                                               ; preds = %42, %36, %21, %14, %9
  call void @llvm.lifetime.end.p0(i64 8, ptr %4) #5
  %47 = load i1, ptr %2, align 1
  ret i1 %47
}