; Function Attrs: nounwind uwtable
define hidden zeroext i1 @SDL_HasClipboardData_REAL(ptr noundef %0) local_unnamed_addr #0 {
  %2 = tail call ptr @SDL_GetVideoDevice() #6
  %.not = icmp eq ptr %2, null
  br i1 %.not, label %3, label %5

3:                                                ; preds = %1
  %4 = tail call zeroext i1 @SDL_UninitializedVideo() #6
  br label %SDL_HasInternalClipboardData.exit

5:                                                ; preds = %1
  %.not16 = icmp eq ptr %0, null
  br i1 %.not16, label %6, label %8

6:                                                ; preds = %5
  %7 = tail call zeroext i1 (ptr, ...) @SDL_SetError_REAL(ptr noundef nonnull @.str.3, ptr noundef nonnull @.str.4) #6
  br label %SDL_HasInternalClipboardData.exit

8:                                                ; preds = %5
  %9 = getelementptr inbounds nuw i8, ptr %2, i64 688
  %10 = load ptr, ptr %9, align 8
  %.not17 = icmp eq ptr %10, null
  br i1 %.not17, label %13, label %11

11:                                               ; preds = %8
  %12 = tail call zeroext i1 %10(ptr noundef nonnull %2, ptr noundef nonnull %0) #6
  br label %SDL_HasInternalClipboardData.exit

13:                                               ; preds = %8
  %14 = getelementptr inbounds nuw i8, ptr %2, i64 712
  %15 = load ptr, ptr %14, align 8
  %.not18 = icmp eq ptr %15, null
  br i1 %.not18, label %22, label %16

16:                                               ; preds = %13
  %17 = tail call i32 @SDL_strncmp_REAL(ptr noundef nonnull %0, ptr noundef nonnull @.str.5, i64 noundef 4) #6
  %18 = icmp eq i32 %17, 0
  br i1 %18, label %19, label %22

19:                                               ; preds = %16
  %20 = load ptr, ptr %14, align 8
  %21 = tail call zeroext i1 %20(ptr noundef nonnull %2) #6
  br label %SDL_HasInternalClipboardData.exit

22:                                               ; preds = %16, %13
  %23 = getelementptr inbounds nuw i8, ptr %2, i64 880
  %24 = getelementptr inbounds nuw i8, ptr %2, i64 888
  %25 = load i64, ptr %24, align 8
  %.not.i = icmp eq i64 %25, 0
  br i1 %.not.i, label %SDL_HasInternalClipboardData.exit, label %.lr.ph.i

26:                                               ; preds = %.lr.ph.i
  %27 = add nuw i64 %.07.i, 1
  %28 = load i64, ptr %24, align 8
  %29 = icmp ult i64 %27, %28
  br i1 %29, label %.lr.ph.i, label %SDL_HasInternalClipboardData.exit, !llvm.loop !10

.lr.ph.i:                                         ; preds = %22, %26
  %.07.i = phi i64 [ %27, %26 ], [ 0, %22 ]
  %30 = load ptr, ptr %23, align 8
  %31 = getelementptr inbounds nuw ptr, ptr %30, i64 %.07.i
  %32 = load ptr, ptr %31, align 8
  %33 = tail call i32 @SDL_strcmp_REAL(ptr noundef nonnull %0, ptr noundef %32) #6
  %34 = icmp eq i32 %33, 0
  br i1 %34, label %SDL_HasInternalClipboardData.exit, label %26

SDL_HasInternalClipboardData.exit:                ; preds = %.lr.ph.i, %26, %22, %19, %11, %6, %3
  %.0 = phi i1 [ %12, %11 ], [ %21, %19 ], [ false, %6 ], [ false, %3 ], [ false, %22 ], [ %34, %26 ], [ %34, %.lr.ph.i ]
  ret i1 %.0
}